target datalayout = "e-m:e-p270:32:32-p271:32:32-p272:64:64-i64:64-i128:128-f80:128-n8:16:32:64-S128"
target triple = "x86_64-pc-linux-gnu"

%struct.QDMCContext = type { ptr, i8, i32, i32, i32, i32, i32, i32, i32, [2 x [19 x [17 x i8]]], [5 x [8192 x %struct.QDMCTone]], [5 x i32], [5 x i32], [5 x [31 x float]], [4 x [16384 x float]], [8192 x float], [8192 x float], [65536 x float], ptr, i32, [12 x i8], [2 x [512 x %struct.AVComplexFloat]], [2 x [512 x %struct.AVComplexFloat]], ptr, ptr }
%struct.QDMCTone = type { i8, i8, i8, i16, i16 }
%struct.AVComplexFloat = type { float, float }

@noise_bands_size = internal constant [7 x i8] c"\13\0E\0B\09\04\02\00", align 1

; Function Attrs: nounwind uwtable
define internal void @make_noises(ptr noundef %0) #1 {
  %2 = alloca ptr, align 8
  %3 = alloca i32, align 4
  %4 = alloca i32, align 4
  %5 = alloca i32, align 4
  %6 = alloca i32, align 4
  %7 = alloca i32, align 4
  %8 = alloca i32, align 4
  %9 = alloca ptr, align 8
  store ptr %0, ptr %2, align 8, !tbaa !29
  call void @llvm.lifetime.start.p0(i64 4, ptr %3) #12
  call void @llvm.lifetime.start.p0(i64 4, ptr %4) #12
  call void @llvm.lifetime.start.p0(i64 4, ptr %5) #12
  call void @llvm.lifetime.start.p0(i64 4, ptr %6) #12
  call void @llvm.lifetime.start.p0(i64 4, ptr %7) #12
  call void @llvm.lifetime.start.p0(i64 4, ptr %8) #12
  call void @llvm.lifetime.start.p0(i64 8, ptr %9) #12
  store i32 0, ptr %4, align 4, !tbaa !36
  br label %10

10:                                               ; preds = %122, %1
  %11 = load i32, ptr %4, align 4, !tbaa !36
  %12 = load ptr, ptr %2, align 8, !tbaa !29
  %13 = getelementptr inbounds nuw %struct.QDMCContext, ptr %12, i32 0, i32 2
  %14 = load i32, ptr %13, align 4, !tbaa !54
  %15 = sext i32 %14 to i64
  %16 = getelementptr inbounds [7 x i8], ptr @noise_bands_size, i64 0, i64 %15
  %17 = load i8, ptr %16, align 1, !tbaa !43
  %18 = zext i8 %17 to i32
  %19 = icmp slt i32 %11, %18
  br i1 %19, label %20, label %125

20:                                               ; preds = %10
  %21 = load i32, ptr %4, align 4, !tbaa !36
  %22 = load ptr, ptr %2, align 8, !tbaa !29
  %23 = getelementptr inbounds nuw %struct.QDMCContext, ptr %22, i32 0, i32 2
  %24 = load i32, ptr %23, align 4, !tbaa !54
  %25 = mul nsw i32 21, %24
  %26 = add nsw i32 %21, %25
  %27 = sext i32 %26 to i64
  %28 = getelementptr inbounds [112 x i16], ptr @qdmc_nodes, i64 0, i64 %27
  %29 = load i16, ptr %28, align 2, !tbaa !88
  %30 = zext i16 %29 to i32
  store i32 %30, ptr %5, align 4, !tbaa !36
  %31 = load i32, ptr %4, align 4, !tbaa !36
  %32 = load ptr, ptr %2, align 8, !tbaa !29
  %33 = getelementptr inbounds nuw %struct.QDMCContext, ptr %32, i32 0, i32 2
  %34 = load i32, ptr %33, align 4, !tbaa !54
  %35 = mul nsw i32 21, %34
  %36 = add nsw i32 %31, %35
  %37 = add nsw i32 %36, 1
  %38 = sext i32 %37 to i64
  %39 = getelementptr inbounds [112 x i16], ptr @qdmc_nodes, i64 0, i64 %38
  %40 = load i16, ptr %39, align 2, !tbaa !88
  %41 = zext i16 %40 to i32
  store i32 %41, ptr %6, align 4, !tbaa !36
  %42 = load i32, ptr %4, align 4, !tbaa !36
  %43 = load ptr, ptr %2, align 8, !tbaa !29
  %44 = getelementptr inbounds nuw %struct.QDMCContext, ptr %43, i32 0, i32 2
  %45 = load i32, ptr %44, align 4, !tbaa !54
  %46 = mul nsw i32 21, %45
  %47 = add nsw i32 %42, %46
  %48 = add nsw i32 %47, 2
  %49 = sext i32 %48 to i64
  %50 = getelementptr inbounds [112 x i16], ptr @qdmc_nodes, i64 0, i64 %49
  %51 = load i16, ptr %50, align 2, !tbaa !88
  %52 = zext i16 %51 to i32
  store i32 %52, ptr %7, align 4, !tbaa !36
  %53 = load ptr, ptr %2, align 8, !tbaa !29
  %54 = getelementptr inbounds nuw %struct.QDMCContext, ptr %53, i32 0, i32 16
  %55 = getelementptr inbounds [8192 x float], ptr %54, i64 0, i64 0
  %56 = load i32, ptr %4, align 4, !tbaa !36
  %57 = mul nsw i32 256, %56
  %58 = sext i32 %57 to i64
  %59 = getelementptr inbounds float, ptr %55, i64 %58
  store ptr %59, ptr %9, align 8, !tbaa !90
  store i32 0, ptr %3, align 4, !tbaa !36
  br label %60

60:                                               ; preds = %76, %20
  %61 = load i32, ptr %3, align 4, !tbaa !36
  %62 = load i32, ptr %5, align 4, !tbaa !36
  %63 = add nsw i32 %61, %62
  %64 = load i32, ptr %6, align 4, !tbaa !36
  %65 = icmp slt i32 %63, %64
  br i1 %65, label %66, label %81

66:                                               ; preds = %60
  %67 = load i32, ptr %3, align 4, !tbaa !36
  %68 = sitofp i32 %67 to float
  %69 = load i32, ptr %6, align 4, !tbaa !36
  %70 = load i32, ptr %5, align 4, !tbaa !36
  %71 = sub nsw i32 %69, %70
  %72 = sitofp i32 %71 to float
  %73 = fdiv nsz float %68, %72
  %74 = load ptr, ptr %9, align 8, !tbaa !90
  %75 = getelementptr inbounds float, ptr %74, i64 0
  store float %73, ptr %75, align 4, !tbaa !31
  br label %76

76:                                               ; preds = %66
  %77 = load i32, ptr %3, align 4, !tbaa !36
  %78 = add nsw i32 %77, 1
  store i32 %78, ptr %3, align 4, !tbaa !36
  %79 = load ptr, ptr %9, align 8, !tbaa !90
  %80 = getelementptr inbounds nuw float, ptr %79, i32 1
  store ptr %80, ptr %9, align 8, !tbaa !90
  br label %60, !llvm.loop !91

81:                                               ; preds = %60
  %82 = load i32, ptr %7, align 4, !tbaa !36
  %83 = load i32, ptr %6, align 4, !tbaa !36
  %84 = sub nsw i32 %82, %83
  store i32 %84, ptr %8, align 4, !tbaa !36
  %85 = load ptr, ptr %2, align 8, !tbaa !29
  %86 = getelementptr inbounds nuw %struct.QDMCContext, ptr %85, i32 0, i32 16
  %87 = getelementptr inbounds [8192 x float], ptr %86, i64 0, i64 0
  %88 = load i32, ptr %4, align 4, !tbaa !36
  %89 = shl i32 %88, 8
  %90 = sext i32 %89 to i64
  %91 = getelementptr inbounds float, ptr %87, i64 %90
  %92 = load i32, ptr %6, align 4, !tbaa !36
  %93 = sext i32 %92 to i64
  %94 = getelementptr inbounds float, ptr %91, i64 %93
  %95 = load i32, ptr %5, align 4, !tbaa !36
  %96 = sext i32 %95 to i64
  %97 = sub i64 0, %96
  %98 = getelementptr inbounds float, ptr %94, i64 %97
  store ptr %98, ptr %9, align 8, !tbaa !90
  %99 = load i32, ptr %6, align 4, !tbaa !36
  store i32 %99, ptr %3, align 4, !tbaa !36
  br label %100

100:                                              ; preds = %114, %81
  %101 = load i32, ptr %3, align 4, !tbaa !36
  %102 = load i32, ptr %7, align 4, !tbaa !36
  %103 = icmp slt i32 %101, %102
  br i1 %103, label %104, label %121

104:                                              ; preds = %100
  %105 = load i32, ptr %8, align 4, !tbaa !36
  %106 = sitofp i32 %105 to float
  %107 = load i32, ptr %7, align 4, !tbaa !36
  %108 = load i32, ptr %6, align 4, !tbaa !36
  %109 = sub nsw i32 %107, %108
  %110 = sitofp i32 %109 to float
  %111 = fdiv nsz float %106, %110
  %112 = load ptr, ptr %9, align 8, !tbaa !90
  %113 = getelementptr inbounds float, ptr %112, i64 0
  store float %111, ptr %113, align 4, !tbaa !31
  br label %114

114:                                              ; preds = %104
  %115 = load i32, ptr %3, align 4, !tbaa !36
  %116 = add nsw i32 %115, 1
  store i32 %116, ptr %3, align 4, !tbaa !36
  %117 = load ptr, ptr %9, align 8, !tbaa !90
  %118 = getelementptr inbounds nuw float, ptr %117, i32 1
  store ptr %118, ptr %9, align 8, !tbaa !90
  %119 = load i32, ptr %8, align 4, !tbaa !36
  %120 = add nsw i32 %119, -1
  store i32 %120, ptr %8, align 4, !tbaa !36
  br label %100, !llvm.loop !92

121:                                              ; preds = %100
  br label %122

122:                                              ; preds = %121
  %123 = load i32, ptr %4, align 4, !tbaa !36
  %124 = add nsw i32 %123, 1
  store i32 %124, ptr %4, align 4, !tbaa !36
  br label %10, !llvm.loop !93

125:                                              ; preds = %10
  call void @llvm.lifetime.end.p0(i64 8, ptr %9) #12
  call void @llvm.lifetime.end.p0(i64 4, ptr %8) #12
  call void @llvm.lifetime.end.p0(i64 4, ptr %7) #12
  call void @llvm.lifetime.end.p0(i64 4, ptr %6) #12
  call void @llvm.lifetime.end.p0(i64 4, ptr %5) #12
  call void @llvm.lifetime.end.p0(i64 4, ptr %4) #12
  call void @llvm.lifetime.end.p0(i64 4, ptr %3) #12
  ret void
}