; Function Attrs: nofree norecurse nosync nounwind memory(argmem: readwrite) uwtable
define internal fastcc void @make_noises(ptr noundef captures(none) %0) unnamed_addr #7 {
  %2 = getelementptr inbounds nuw i8, ptr %0, i64 12
  %3 = load i32, ptr %2, align 4, !tbaa !46
  %.not = icmp eq i32 %3, 6
  br i1 %.not, label %._crit_edge52, label %.lr.ph51

.lr.ph51:                                         ; preds = %1
  %4 = sext i32 %3 to i64
  %5 = getelementptr inbounds [7 x i8], ptr @noise_bands_size, i64 0, i64 %4
  %6 = load i8, ptr %5, align 1, !tbaa !30
  %7 = mul nsw i32 %3, 21
  %8 = getelementptr inbounds nuw i8, ptr %0, i64 623940
  %9 = sext i32 %7 to i64
  %10 = tail call i8 @llvm.umax.i8(i8 %6, i8 1)
  %wide.trip.count = zext i8 %10 to i64
  br label %11

11:                                               ; preds = %.lr.ph51, %._crit_edge48
  %indvars.iv = phi i64 [ 0, %.lr.ph51 ], [ %indvars.iv.next, %._crit_edge48 ]
  %12 = add nsw i64 %indvars.iv, %9
  %13 = getelementptr inbounds [112 x i16], ptr @qdmc_nodes, i64 0, i64 %12
  %14 = load i16, ptr %13, align 2, !tbaa !83
  %15 = add nsw i64 %12, 1
  %16 = getelementptr inbounds [112 x i16], ptr @qdmc_nodes, i64 0, i64 %15
  %17 = load i16, ptr %16, align 2, !tbaa !83
  %18 = zext i16 %17 to i32
  %19 = add nsw i64 %12, 2
  %20 = getelementptr inbounds [112 x i16], ptr @qdmc_nodes, i64 0, i64 %19
  %21 = load i16, ptr %20, align 2, !tbaa !83
  %22 = zext i16 %21 to i32
  %23 = shl nuw nsw i64 %indvars.iv, 8
  %24 = icmp ult i16 %14, %17
  br i1 %24, label %.lr.ph, label %._crit_edge

.lr.ph:                                           ; preds = %11
  %25 = getelementptr inbounds nuw float, ptr %8, i64 %23
  %narrow = sub nuw i16 %17, %14
  %26 = zext i16 %narrow to i32
  %27 = uitofp i16 %narrow to float
  br label %28

28:                                               ; preds = %.lr.ph, %28
  %.042 = phi ptr [ %25, %.lr.ph ], [ %32, %28 ]
  %.03641 = phi i32 [ 0, %.lr.ph ], [ %31, %28 ]
  %29 = uitofp nneg i32 %.03641 to float
  %30 = fdiv nsz float %29, %27
  store float %30, ptr %.042, align 4, !tbaa !27
  %31 = add nuw nsw i32 %.03641, 1
  %32 = getelementptr inbounds nuw i8, ptr %.042, i64 4
  %exitcond.not = icmp eq i32 %31, %26
  br i1 %exitcond.not, label %._crit_edge, label %28, !llvm.loop !114

._crit_edge:                                      ; preds = %28, %11
  %33 = icmp ult i16 %17, %21
  br i1 %33, label %.lr.ph47, label %._crit_edge48

.lr.ph47:                                         ; preds = %._crit_edge
  %34 = getelementptr inbounds nuw float, ptr %8, i64 %23
  %35 = zext i16 %17 to i64
  %36 = getelementptr inbounds nuw float, ptr %34, i64 %35
  %37 = zext i16 %14 to i64
  %38 = sub nsw i64 0, %37
  %39 = getelementptr inbounds float, ptr %36, i64 %38
  %40 = sub nuw nsw i32 %22, %18
  %41 = uitofp nneg i32 %40 to float
  br label %42

42:                                               ; preds = %.lr.ph47, %42
  %.145 = phi ptr [ %39, %.lr.ph47 ], [ %46, %42 ]
  %.03544 = phi i32 [ %40, %.lr.ph47 ], [ %47, %42 ]
  %.13743 = phi i32 [ %18, %.lr.ph47 ], [ %45, %42 ]
  %43 = sitofp i32 %.03544 to float
  %44 = fdiv nsz float %43, %41
  store float %44, ptr %.145, align 4, !tbaa !27
  %45 = add nuw nsw i32 %.13743, 1
  %46 = getelementptr inbounds nuw i8, ptr %.145, i64 4
  %47 = add nsw i32 %.03544, -1
  %exitcond53.not = icmp eq i32 %45, %22
  br i1 %exitcond53.not, label %._crit_edge48, label %42, !llvm.loop !115

._crit_edge48:                                    ; preds = %42, %._crit_edge
  %indvars.iv.next = add nuw nsw i64 %indvars.iv, 1
  %exitcond55.not = icmp eq i64 %indvars.iv.next, %wide.trip.count
  br i1 %exitcond55.not, label %._crit_edge52, label %11, !llvm.loop !116

._crit_edge52:                                    ; preds = %._crit_edge48, %1
  ret void
}